target datalayout = "e-m:e-p270:32:32-p271:32:32-p272:64:64-i64:64-i128:128-f80:128-n8:16:32:64-S128"
target triple = "x86_64-pc-linux-gnu"

%struct.t_atoms = type { i32, ptr, ptr, ptr, ptr, i32, ptr, ptr, i8, i8, i8, i8, i8 }

@.str = private unnamed_addr constant [2 x i8] c"w\00", align 1

; Function Attrs: mustprogress uwtable
define void @_Z19write_sto_conf_mtopRKNSt10filesystem7__cxx114pathEPKcRK10gmx_mtop_tPA3_KfSB_7PbcTypeSB_(ptr noundef nonnull align 8 dereferenceable(40) %0, ptr noundef %1, ptr noundef nonnull align 8 dereferenceable(768) %2, ptr noundef %3, ptr noundef %4, i32 noundef %5, ptr noundef %6) #0 {
  %8 = alloca ptr, align 8
  %9 = alloca ptr, align 8
  %10 = alloca ptr, align 8
  %11 = alloca ptr, align 8
  %12 = alloca ptr, align 8
  %13 = alloca i32, align 4
  %14 = alloca ptr, align 8
  %15 = alloca i32, align 4
  %16 = alloca ptr, align 8
  %17 = alloca %struct.t_atoms, align 8
  %18 = alloca %struct.t_atoms, align 8
  store ptr %0, ptr %8, align 8, !tbaa !4
  store ptr %1, ptr %9, align 8, !tbaa !9
  store ptr %2, ptr %10, align 8, !tbaa !95
  store ptr %3, ptr %11, align 8, !tbaa !13
  store ptr %4, ptr %12, align 8, !tbaa !13
  store i32 %5, ptr %13, align 4, !tbaa !15
  store ptr %6, ptr %14, align 8, !tbaa !13
  call void @llvm.lifetime.start.p0(i64 4, ptr %15) #12
  call void @llvm.lifetime.start.p0(i64 8, ptr %16) #12
  call void @llvm.lifetime.start.p0(i64 72, ptr %17) #12
  %19 = load ptr, ptr %8, align 8, !tbaa !4
  %20 = call noundef i32 @_Z6fn2ftpRKNSt10filesystem7__cxx114pathE(ptr noundef nonnull align 8 dereferenceable(40) %19)
  store i32 %20, ptr %15, align 4, !tbaa !17
  %21 = load i32, ptr %15, align 4, !tbaa !17
  switch i32 %21, label %33 [
    i32 11, label %22
  ]

22:                                               ; preds = %7
  %23 = load ptr, ptr %8, align 8, !tbaa !4
  %24 = call noundef ptr @_Z13gmx_fio_fopenRKNSt10filesystem7__cxx114pathEPKc(ptr noundef nonnull align 8 dereferenceable(40) %23, ptr noundef @.str)
  store ptr %24, ptr %16, align 8, !tbaa !21
  %25 = load ptr, ptr %16, align 8, !tbaa !21
  %26 = load ptr, ptr %9, align 8, !tbaa !9
  %27 = load ptr, ptr %10, align 8, !tbaa !95
  %28 = load ptr, ptr %11, align 8, !tbaa !13
  %29 = load ptr, ptr %12, align 8, !tbaa !13
  %30 = load ptr, ptr %14, align 8, !tbaa !13
  call void @_Z16write_hconf_mtopP8_IO_FILEPKcRK10gmx_mtop_tPA3_KfS8_S8_(ptr noundef %25, ptr noundef %26, ptr noundef nonnull align 8 dereferenceable(768) %27, ptr noundef %28, ptr noundef %29, ptr noundef %30)
  %31 = load ptr, ptr %16, align 8, !tbaa !21
  %32 = call noundef i32 @_Z14gmx_fio_fcloseP8_IO_FILE(ptr noundef %31)
  br label %41

33:                                               ; preds = %7
  call void @llvm.lifetime.start.p0(i64 72, ptr %18) #12
  %34 = load ptr, ptr %10, align 8, !tbaa !95
  call void @_Z21gmx_mtop_global_atomsRK10gmx_mtop_t(ptr dead_on_unwind writable sret(%struct.t_atoms) align 8 %18, ptr noundef nonnull align 8 dereferenceable(768) %34)
  call void @llvm.memcpy.p0.p0.i64(ptr align 8 %17, ptr align 8 %18, i64 72, i1 false), !tbaa.struct !97
  call void @llvm.lifetime.end.p0(i64 72, ptr %18) #12
  %35 = load ptr, ptr %8, align 8, !tbaa !4
  %36 = load ptr, ptr %9, align 8, !tbaa !9
  %37 = load ptr, ptr %11, align 8, !tbaa !13
  %38 = load ptr, ptr %12, align 8, !tbaa !13
  %39 = load i32, ptr %13, align 4, !tbaa !15
  %40 = load ptr, ptr %14, align 8, !tbaa !13
  call void @_Z14write_sto_confRKNSt10filesystem7__cxx114pathEPKcPK7t_atomsPA3_KfSB_7PbcTypeSB_(ptr noundef nonnull align 8 dereferenceable(40) %35, ptr noundef %36, ptr noundef %17, ptr noundef %37, ptr noundef %38, i32 noundef %39, ptr noundef %40)
  call void @_Z9done_atomP7t_atoms(ptr noundef %17)
  br label %41

41:                                               ; preds = %33, %22
  call void @llvm.lifetime.end.p0(i64 72, ptr %17) #12
  call void @llvm.lifetime.end.p0(i64 8, ptr %16) #12
  call void @llvm.lifetime.end.p0(i64 4, ptr %15) #12
  ret void
}