; Function Attrs: mustprogress uwtable
define void @_Z19write_sto_conf_mtopRKNSt10filesystem7__cxx114pathEPKcRK10gmx_mtop_tPA3_KfSB_7PbcTypeSB_(ptr noundef nonnull align 8 dereferenceable(40) %0, ptr noundef %1, ptr noundef nonnull align 8 dereferenceable(768) %2, ptr noundef %3, ptr noundef %4, i32 noundef %5, ptr noundef %6) local_unnamed_addr #0 {
  %8 = alloca %struct.t_atoms, align 8
  call void @llvm.lifetime.start.p0(i64 72, ptr nonnull %8) #15
  %9 = tail call noundef i32 @_Z6fn2ftpRKNSt10filesystem7__cxx114pathE(ptr noundef nonnull align 8 dereferenceable(40) %0)
  %cond = icmp eq i32 %9, 11
  br i1 %cond, label %10, label %13

10:                                               ; preds = %7
  %11 = tail call noundef ptr @_Z13gmx_fio_fopenRKNSt10filesystem7__cxx114pathEPKc(ptr noundef nonnull align 8 dereferenceable(40) %0, ptr noundef nonnull @.str)
  tail call void @_Z16write_hconf_mtopP8_IO_FILEPKcRK10gmx_mtop_tPA3_KfS8_S8_(ptr noundef %11, ptr noundef %1, ptr noundef nonnull align 8 dereferenceable(768) %2, ptr noundef %3, ptr noundef %4, ptr noundef %6)
  %12 = tail call noundef i32 @_Z14gmx_fio_fcloseP8_IO_FILE(ptr noundef %11)
  br label %14

13:                                               ; preds = %7
  call void @_Z21gmx_mtop_global_atomsRK10gmx_mtop_t(ptr dead_on_unwind nonnull writable sret(%struct.t_atoms) align 8 %8, ptr noundef nonnull align 8 dereferenceable(768) %2)
  call void @_Z14write_sto_confRKNSt10filesystem7__cxx114pathEPKcPK7t_atomsPA3_KfSB_7PbcTypeSB_(ptr noundef nonnull align 8 dereferenceable(40) %0, ptr noundef %1, ptr noundef nonnull %8, ptr noundef %3, ptr noundef %4, i32 noundef %5, ptr noundef %6)
  call void @_Z9done_atomP7t_atoms(ptr noundef nonnull %8)
  br label %14

14:                                               ; preds = %13, %10
  call void @llvm.lifetime.end.p0(i64 72, ptr nonnull %8) #15
  ret void
}